; ModuleID = 'source-C-CXX/59/1680.c'
source_filename = "source-C-CXX/59/1680.c"
target datalayout = "e-m:e-p270:32:32-p271:32:32-p272:64:64-i64:64-f80:128-n8:16:32:64-S128"
target triple = "x86_64-pc-linux-gnu"

@.str = private unnamed_addr constant [3 x i8] c"%d\00", align 1
@.str.1 = private unnamed_addr constant [7 x i8] c"%d %d\0A\00", align 1
@.str.2 = private unnamed_addr constant [6 x i8] c"empty\00", align 1

; Function Attrs: nofree nounwind sspstrong uwtable
define dso_local i32 @main() local_unnamed_addr #0 {
  %1 = alloca i32, align 4
  %2 = alloca [100000 x i32], align 16
  %3 = bitcast i32* %1 to i8*
  call void @llvm.lifetime.start.p0i8(i64 4, i8* nonnull %3) #3
  %4 = bitcast [100000 x i32]* %2 to i8*
  call void @llvm.lifetime.start.p0i8(i64 400000, i8* nonnull %4) #3
  %5 = call i32 (i8*, ...) @__isoc99_scanf(i8* getelementptr inbounds ([3 x i8], [3 x i8]* @.str, i64 0, i64 0), i32* nonnull %1)
  %6 = load i32, i32* %1, align 4, !tbaa !5
  %7 = icmp slt i32 %6, 1
  br i1 %7, label %83, label %8

8:                                                ; preds = %0
  %9 = add i32 %6, 1
  br label %10

10:                                               ; preds = %8, %60
  %11 = phi i32 [ 0, %8 ], [ %65, %60 ]
  %12 = phi i32 [ 2, %8 ], [ %63, %60 ]
  %13 = phi i32 [ 0, %8 ], [ %61, %60 ]
  %14 = phi i32 [ 1, %8 ], [ %62, %60 ]
  %15 = add i32 %11, 1
  %16 = and i32 %15, 1
  %17 = icmp eq i32 %11, 0
  br i1 %17, label %43, label %18

18:                                               ; preds = %10
  %19 = and i32 %15, -2
  br label %27

20:                                               ; preds = %60
  %21 = icmp sgt i32 %61, 1
  br i1 %21, label %22, label %83

22:                                               ; preds = %20
  %23 = add nsw i32 %61, -1
  %24 = zext i32 %23 to i64
  %25 = getelementptr inbounds [100000 x i32], [100000 x i32]* %2, i64 0, i64 0
  %26 = load i32, i32* %25, align 16, !tbaa !5
  br label %66

27:                                               ; preds = %27, %18
  %28 = phi i32 [ 0, %18 ], [ %39, %27 ]
  %29 = phi i32 [ 1, %18 ], [ %40, %27 ]
  %30 = phi i32 [ %19, %18 ], [ %41, %27 ]
  %31 = urem i32 %14, %29
  %32 = icmp eq i32 %31, 0
  %33 = zext i1 %32 to i32
  %34 = add nuw nsw i32 %28, %33
  %35 = add nuw i32 %29, 1
  %36 = urem i32 %14, %35
  %37 = icmp eq i32 %36, 0
  %38 = zext i1 %37 to i32
  %39 = add nuw nsw i32 %34, %38
  %40 = add nuw i32 %29, 2
  %41 = add i32 %30, -2
  %42 = icmp eq i32 %41, 0
  br i1 %42, label %43, label %27, !llvm.loop !9

43:                                               ; preds = %27, %10
  %44 = phi i32 [ undef, %10 ], [ %39, %27 ]
  %45 = phi i32 [ 0, %10 ], [ %39, %27 ]
  %46 = phi i32 [ 1, %10 ], [ %40, %27 ]
  %47 = icmp eq i32 %16, 0
  br i1 %47, label %53, label %48

48:                                               ; preds = %43
  %49 = urem i32 %14, %46
  %50 = icmp eq i32 %49, 0
  %51 = zext i1 %50 to i32
  %52 = add nuw nsw i32 %45, %51
  br label %53

53:                                               ; preds = %43, %48
  %54 = phi i32 [ %44, %43 ], [ %52, %48 ]
  %55 = icmp eq i32 %54, 2
  br i1 %55, label %56, label %60

56:                                               ; preds = %53
  %57 = sext i32 %13 to i64
  %58 = getelementptr inbounds [100000 x i32], [100000 x i32]* %2, i64 0, i64 %57
  store i32 %14, i32* %58, align 4, !tbaa !5
  %59 = add nsw i32 %13, 1
  br label %60

60:                                               ; preds = %53, %56
  %61 = phi i32 [ %59, %56 ], [ %13, %53 ]
  %62 = add nuw nsw i32 %14, 1
  %63 = add nuw i32 %12, 1
  %64 = icmp eq i32 %12, %9
  %65 = add i32 %11, 1
  br i1 %64, label %20, label %10, !llvm.loop !11

66:                                               ; preds = %22, %78
  %67 = phi i32 [ %26, %22 ], [ %72, %78 ]
  %68 = phi i64 [ 0, %22 ], [ %70, %78 ]
  %69 = phi i32 [ 0, %22 ], [ %79, %78 ]
  %70 = add nuw nsw i64 %68, 1
  %71 = getelementptr inbounds [100000 x i32], [100000 x i32]* %2, i64 0, i64 %70
  %72 = load i32, i32* %71, align 4, !tbaa !5
  %73 = sub nsw i32 %72, %67
  %74 = icmp eq i32 %73, 2
  br i1 %74, label %75, label %78

75:                                               ; preds = %66
  %76 = add nsw i32 %69, 1
  %77 = call i32 (i8*, ...) @printf(i8* nonnull dereferenceable(1) getelementptr inbounds ([7 x i8], [7 x i8]* @.str.1, i64 0, i64 0), i32 %67, i32 %72)
  br label %78

78:                                               ; preds = %66, %75
  %79 = phi i32 [ %76, %75 ], [ %69, %66 ]
  %80 = icmp eq i64 %70, %24
  br i1 %80, label %81, label %66, !llvm.loop !12

81:                                               ; preds = %78
  %82 = icmp eq i32 %79, 0
  br i1 %82, label %83, label %85

83:                                               ; preds = %0, %20, %81
  %84 = call i32 (i8*, ...) @printf(i8* nonnull dereferenceable(1) getelementptr inbounds ([6 x i8], [6 x i8]* @.str.2, i64 0, i64 0))
  br label %85

85:                                               ; preds = %83, %81
  call void @llvm.lifetime.end.p0i8(i64 400000, i8* nonnull %4) #3
  call void @llvm.lifetime.end.p0i8(i64 4, i8* nonnull %3) #3
  ret i32 0
}

; Function Attrs: argmemonly mustprogress nofree nosync nounwind willreturn
declare void @llvm.lifetime.start.p0i8(i64 immarg, i8* nocapture) #1

; Function Attrs: nofree nounwind
declare noundef i32 @__isoc99_scanf(i8* nocapture noundef readonly, ...) local_unnamed_addr #2

; Function Attrs: nofree nounwind
declare noundef i32 @printf(i8* nocapture noundef readonly, ...) local_unnamed_addr #2

; Function Attrs: argmemonly mustprogress nofree nosync nounwind willreturn
declare void @llvm.lifetime.end.p0i8(i64 immarg, i8* nocapture) #1


!llvm.module.flags = !{!0, !1, !2, !3}
!llvm.ident = !{!4}

!0 = !{i32 1, !"wchar_size", i32 4}
!1 = !{i32 7, !"PIC Level", i32 2}
!2 = !{i32 7, !"PIE Level", i32 2}
!3 = !{i32 7, !"uwtable", i32 1}
!4 = !{!"clang version 13.0.0"}
!5 = !{!6, !6, i64 0}
!6 = !{!"int", !7, i64 0}
!7 = !{!"omnipotent char", !8, i64 0}
!8 = !{!"Simple C/C++ TBAA"}
!9 = distinct !{!9, !10}
!10 = !{!"llvm.loop.mustprogress"}
!11 = distinct !{!11, !10}
!12 = distinct !{!12, !10}
